target datalayout = "e-m:e-p270:32:32-p271:32:32-p272:64:64-i64:64-i128:128-f80:128-n8:16:32:64-S128"
target triple = "x86_64-pc-linux-gnu"

%struct.Vec_Wrd_t_ = type { i32, i32, ptr }

@s_Truths6 = internal global [6 x i64] [i64 -6148914691236517206, i64 -3689348814741910324, i64 -1085102592571150096, i64 -71777214294589696, i64 -281470681808896, i64 -4294967296], align 16

; Function Attrs: inlinehint nounwind uwtable
define internal void @Vec_WrdGrow(ptr noundef %0, i32 noundef %1) #3 {
  %3 = alloca ptr, align 8
  %4 = alloca i32, align 4
  store ptr %0, ptr %3, align 8, !tbaa !9
  store i32 %1, ptr %4, align 4, !tbaa !7
  %5 = load ptr, ptr %3, align 8, !tbaa !9
  %6 = getelementptr inbounds nuw %struct.Vec_Wrd_t_, ptr %5, i32 0, i32 0
  %7 = load i32, ptr %6, align 8, !tbaa !26
  %8 = load i32, ptr %4, align 4, !tbaa !7
  %9 = icmp sge i32 %7, %8
  br i1 %9, label %10, label %11

10:                                               ; preds = %2
  br label %36

11:                                               ; preds = %2
  %12 = load ptr, ptr %3, align 8, !tbaa !9
  %13 = getelementptr inbounds nuw %struct.Vec_Wrd_t_, ptr %12, i32 0, i32 2
  %14 = load ptr, ptr %13, align 8, !tbaa !21
  %15 = icmp ne ptr %14, null
  br i1 %15, label %16, label %24

16:                                               ; preds = %11
  %17 = load ptr, ptr %3, align 8, !tbaa !9
  %18 = getelementptr inbounds nuw %struct.Vec_Wrd_t_, ptr %17, i32 0, i32 2
  %19 = load ptr, ptr %18, align 8, !tbaa !21
  %20 = load i32, ptr %4, align 4, !tbaa !7
  %21 = sext i32 %20 to i64
  %22 = mul i64 8, %21
  %23 = call ptr @realloc(ptr noundef %19, i64 noundef %22) #11
  br label %29

24:                                               ; preds = %11
  %25 = load i32, ptr %4, align 4, !tbaa !7
  %26 = sext i32 %25 to i64
  %27 = mul i64 8, %26
  %28 = call noalias ptr @malloc(i64 noundef %27) #10
  br label %29

29:                                               ; preds = %24, %16
  %30 = phi ptr [ %23, %16 ], [ %28, %24 ]
  %31 = load ptr, ptr %3, align 8, !tbaa !9
  %32 = getelementptr inbounds nuw %struct.Vec_Wrd_t_, ptr %31, i32 0, i32 2
  store ptr %30, ptr %32, align 8, !tbaa !21
  %33 = load i32, ptr %4, align 4, !tbaa !7
  %34 = load ptr, ptr %3, align 8, !tbaa !9
  %35 = getelementptr inbounds nuw %struct.Vec_Wrd_t_, ptr %34, i32 0, i32 0
  store i32 %33, ptr %35, align 8, !tbaa !26
  br label %36

36:                                               ; preds = %29, %10
  ret void
}

; Function Attrs: inlinehint nounwind uwtable
define internal void @Vec_WrdPush(ptr noundef %0, i64 noundef %1) #3 {
  %3 = alloca ptr, align 8
  %4 = alloca i64, align 8
  store ptr %0, ptr %3, align 8, !tbaa !9
  store i64 %1, ptr %4, align 8, !tbaa !3
  %5 = load ptr, ptr %3, align 8, !tbaa !9
  %6 = getelementptr inbounds nuw %struct.Vec_Wrd_t_, ptr %5, i32 0, i32 1
  %7 = load i32, ptr %6, align 4, !tbaa !18
  %8 = load ptr, ptr %3, align 8, !tbaa !9
  %9 = getelementptr inbounds nuw %struct.Vec_Wrd_t_, ptr %8, i32 0, i32 0
  %10 = load i32, ptr %9, align 8, !tbaa !26
  %11 = icmp eq i32 %7, %10
  br i1 %11, label %12, label %26

12:                                               ; preds = %2
  %13 = load ptr, ptr %3, align 8, !tbaa !9
  %14 = getelementptr inbounds nuw %struct.Vec_Wrd_t_, ptr %13, i32 0, i32 0
  %15 = load i32, ptr %14, align 8, !tbaa !26
  %16 = icmp slt i32 %15, 16
  br i1 %16, label %17, label %19

17:                                               ; preds = %12
  %18 = load ptr, ptr %3, align 8, !tbaa !9
  call void @Vec_WrdGrow(ptr noundef %18, i32 noundef 16)
  br label %25

19:                                               ; preds = %12
  %20 = load ptr, ptr %3, align 8, !tbaa !9
  %21 = load ptr, ptr %3, align 8, !tbaa !9
  %22 = getelementptr inbounds nuw %struct.Vec_Wrd_t_, ptr %21, i32 0, i32 0
  %23 = load i32, ptr %22, align 8, !tbaa !26
  %24 = mul nsw i32 2, %23
  call void @Vec_WrdGrow(ptr noundef %20, i32 noundef %24)
  br label %25

25:                                               ; preds = %19, %17
  br label %26

26:                                               ; preds = %25, %2
  %27 = load i64, ptr %4, align 8, !tbaa !3
  %28 = load ptr, ptr %3, align 8, !tbaa !9
  %29 = getelementptr inbounds nuw %struct.Vec_Wrd_t_, ptr %28, i32 0, i32 2
  %30 = load ptr, ptr %29, align 8, !tbaa !21
  %31 = load ptr, ptr %3, align 8, !tbaa !9
  %32 = getelementptr inbounds nuw %struct.Vec_Wrd_t_, ptr %31, i32 0, i32 1
  %33 = load i32, ptr %32, align 4, !tbaa !18
  %34 = add nsw i32 %33, 1
  store i32 %34, ptr %32, align 4, !tbaa !18
  %35 = sext i32 %33 to i64
  %36 = getelementptr inbounds i64, ptr %30, i64 %35
  store i64 %27, ptr %36, align 8, !tbaa !3
  ret void
}

; Function Attrs: inlinehint nounwind uwtable
define internal i64 @Abc_Tt6SwapAdjacent(i64 noundef %0, i32 noundef %1) #3 {
  %3 = alloca i64, align 8
  %4 = alloca i32, align 4
  store i64 %0, ptr %3, align 8, !tbaa !3
  store i32 %1, ptr %4, align 4, !tbaa !7
  %5 = load i64, ptr %3, align 8, !tbaa !3
  %6 = load i32, ptr %4, align 4, !tbaa !7
  %7 = sext i32 %6 to i64
  %8 = getelementptr inbounds [5 x [3 x i64]], ptr @s_PMasks, i64 0, i64 %7
  %9 = getelementptr inbounds [3 x i64], ptr %8, i64 0, i64 0
  %10 = load i64, ptr %9, align 8, !tbaa !3
  %11 = and i64 %5, %10
  %12 = load i64, ptr %3, align 8, !tbaa !3
  %13 = load i32, ptr %4, align 4, !tbaa !7
  %14 = sext i32 %13 to i64
  %15 = getelementptr inbounds [5 x [3 x i64]], ptr @s_PMasks, i64 0, i64 %14
  %16 = getelementptr inbounds [3 x i64], ptr %15, i64 0, i64 1
  %17 = load i64, ptr %16, align 8, !tbaa !3
  %18 = and i64 %12, %17
  %19 = load i32, ptr %4, align 4, !tbaa !7
  %20 = shl i32 1, %19
  %21 = zext i32 %20 to i64
  %22 = shl i64 %18, %21
  %23 = or i64 %11, %22
  %24 = load i64, ptr %3, align 8, !tbaa !3
  %25 = load i32, ptr %4, align 4, !tbaa !7
  %26 = sext i32 %25 to i64
  %27 = getelementptr inbounds [5 x [3 x i64]], ptr @s_PMasks, i64 0, i64 %26
  %28 = getelementptr inbounds [3 x i64], ptr %27, i64 0, i64 2
  %29 = load i64, ptr %28, align 8, !tbaa !3
  %30 = and i64 %24, %29
  %31 = load i32, ptr %4, align 4, !tbaa !7
  %32 = shl i32 1, %31
  %33 = zext i32 %32 to i64
  %34 = lshr i64 %30, %33
  %35 = or i64 %23, %34
  ret i64 %35
}

; Function Attrs: inlinehint nounwind uwtable
define internal i64 @Abc_Tt6Flip(i64 noundef %0, i32 noundef %1) #3 {
  %3 = alloca i64, align 8
  %4 = alloca i32, align 4
  store i64 %0, ptr %3, align 8, !tbaa !3
  store i32 %1, ptr %4, align 4, !tbaa !7
  %5 = load i64, ptr %3, align 8, !tbaa !3
  %6 = load i32, ptr %4, align 4, !tbaa !7
  %7 = shl i32 1, %6
  %8 = zext i32 %7 to i64
  %9 = shl i64 %5, %8
  %10 = load i32, ptr %4, align 4, !tbaa !7
  %11 = sext i32 %10 to i64
  %12 = getelementptr inbounds [6 x i64], ptr @s_Truths6, i64 0, i64 %11
  %13 = load i64, ptr %12, align 8, !tbaa !3
  %14 = and i64 %9, %13
  %15 = load i64, ptr %3, align 8, !tbaa !3
  %16 = load i32, ptr %4, align 4, !tbaa !7
  %17 = sext i32 %16 to i64
  %18 = getelementptr inbounds [6 x i64], ptr @s_Truths6, i64 0, i64 %17
  %19 = load i64, ptr %18, align 8, !tbaa !3
  %20 = and i64 %15, %19
  %21 = load i32, ptr %4, align 4, !tbaa !7
  %22 = shl i32 1, %21
  %23 = zext i32 %22 to i64
  %24 = lshr i64 %20, %23
  %25 = or i64 %14, %24
  store i64 %25, ptr %3, align 8, !tbaa !3
  ret i64 %25
}

; Function Attrs: inlinehint nounwind uwtable
define internal i32 @Vec_WrdPushUnique(ptr noundef %0, i64 noundef %1) #3 {
  %3 = alloca i32, align 4
  %4 = alloca ptr, align 8
  %5 = alloca i64, align 8
  %6 = alloca i32, align 4
  %7 = alloca i32, align 4
  store ptr %0, ptr %4, align 8, !tbaa !9
  store i64 %1, ptr %5, align 8, !tbaa !3
  call void @llvm.lifetime.start.p0(i64 4, ptr %6) #9
  store i32 0, ptr %6, align 4, !tbaa !7
  br label %8

8:                                                ; preds = %26, %2
  %9 = load i32, ptr %6, align 4, !tbaa !7
  %10 = load ptr, ptr %4, align 8, !tbaa !9
  %11 = getelementptr inbounds nuw %struct.Vec_Wrd_t_, ptr %10, i32 0, i32 1
  %12 = load i32, ptr %11, align 4, !tbaa !18
  %13 = icmp slt i32 %9, %12
  br i1 %13, label %14, label %29

14:                                               ; preds = %8
  %15 = load ptr, ptr %4, align 8, !tbaa !9
  %16 = getelementptr inbounds nuw %struct.Vec_Wrd_t_, ptr %15, i32 0, i32 2
  %17 = load ptr, ptr %16, align 8, !tbaa !21
  %18 = load i32, ptr %6, align 4, !tbaa !7
  %19 = sext i32 %18 to i64
  %20 = getelementptr inbounds i64, ptr %17, i64 %19
  %21 = load i64, ptr %20, align 8, !tbaa !3
  %22 = load i64, ptr %5, align 8, !tbaa !3
  %23 = icmp eq i64 %21, %22
  br i1 %23, label %24, label %25

24:                                               ; preds = %14
  store i32 1, ptr %3, align 4
  store i32 1, ptr %7, align 4
  br label %32

25:                                               ; preds = %14
  br label %26

26:                                               ; preds = %25
  %27 = load i32, ptr %6, align 4, !tbaa !7
  %28 = add nsw i32 %27, 1
  store i32 %28, ptr %6, align 4, !tbaa !7
  br label %8, !llvm.loop !22

29:                                               ; preds = %8
  %30 = load ptr, ptr %4, align 8, !tbaa !9
  %31 = load i64, ptr %5, align 8, !tbaa !3
  call void @Vec_WrdPush(ptr noundef %30, i64 noundef %31)
  store i32 0, ptr %3, align 4
  store i32 1, ptr %7, align 4
  br label %32

32:                                               ; preds = %29, %24
  call void @llvm.lifetime.end.p0(i64 4, ptr %6) #9
  %33 = load i32, ptr %3, align 4
  ret i32 %33
}

; Function Attrs: inlinehint nounwind uwtable
define internal void @Vec_WrdClear(ptr noundef %0) #3 {
  %2 = alloca ptr, align 8
  store ptr %0, ptr %2, align 8, !tbaa !9
  %3 = load ptr, ptr %2, align 8, !tbaa !9
  %4 = getelementptr inbounds nuw %struct.Vec_Wrd_t_, ptr %3, i32 0, i32 1
  store i32 0, ptr %4, align 4, !tbaa !18
  ret void
}

; Function Attrs: nounwind uwtable
define i64 @Extra_TruthCanonNPN3(i64 noundef %0, i32 noundef %1, ptr noundef %2) #0 {
  %4 = alloca i64, align 8
  %5 = alloca i32, align 4
  %6 = alloca ptr, align 8
  %7 = alloca i32, align 4
  %8 = alloca i32, align 4
  %9 = alloca ptr, align 8
  %10 = alloca ptr, align 8
  %11 = alloca i64, align 8
  %12 = alloca i64, align 8
  %13 = alloca i64, align 8
  %14 = alloca i64, align 8
  %15 = alloca i32, align 4
  %16 = alloca i32, align 4
  %17 = alloca i32, align 4
  store i64 %0, ptr %4, align 8, !tbaa !3
  store i32 %1, ptr %5, align 4, !tbaa !7
  store ptr %2, ptr %6, align 8, !tbaa !9
  call void @llvm.lifetime.start.p0(i64 4, ptr %7) #9
  %18 = load i32, ptr %5, align 4, !tbaa !7
  %19 = shl i32 1, %18
  store i32 %19, ptr %7, align 4, !tbaa !7
  call void @llvm.lifetime.start.p0(i64 4, ptr %8) #9
  %20 = load i32, ptr %5, align 4, !tbaa !7
  %21 = call i32 @Extra_Factorial(i32 noundef %20)
  store i32 %21, ptr %8, align 4, !tbaa !7
  call void @llvm.lifetime.start.p0(i64 8, ptr %9) #9
  %22 = load i32, ptr %5, align 4, !tbaa !7
  %23 = call ptr @Extra_GreyCodeSchedule(i32 noundef %22)
  store ptr %23, ptr %9, align 8, !tbaa !12
  call void @llvm.lifetime.start.p0(i64 8, ptr %10) #9
  %24 = load i32, ptr %5, align 4, !tbaa !7
  %25 = call ptr @Extra_PermSchedule(i32 noundef %24)
  store ptr %25, ptr %10, align 8, !tbaa !12
  call void @llvm.lifetime.start.p0(i64 8, ptr %11) #9
  call void @llvm.lifetime.start.p0(i64 8, ptr %12) #9
  call void @llvm.lifetime.start.p0(i64 8, ptr %13) #9
  call void @llvm.lifetime.start.p0(i64 8, ptr %14) #9
  store i64 -1, ptr %14, align 8, !tbaa !3
  call void @llvm.lifetime.start.p0(i64 4, ptr %15) #9
  call void @llvm.lifetime.start.p0(i64 4, ptr %16) #9
  call void @llvm.lifetime.start.p0(i64 4, ptr %17) #9
  %26 = load ptr, ptr %6, align 8, !tbaa !9
  call void @Vec_WrdClear(ptr noundef %26)
  store i32 0, ptr %15, align 4, !tbaa !7
  br label %27

27:                                               ; preds = %83, %3
  %28 = load i32, ptr %15, align 4, !tbaa !7
  %29 = icmp slt i32 %28, 2
  br i1 %29, label %30, label %86

30:                                               ; preds = %27
  %31 = load i32, ptr %15, align 4, !tbaa !7
  %32 = icmp ne i32 %31, 0
  br i1 %32, label %33, label %36

33:                                               ; preds = %30
  %34 = load i64, ptr %4, align 8, !tbaa !3
  %35 = xor i64 %34, -1
  br label %38

36:                                               ; preds = %30
  %37 = load i64, ptr %4, align 8, !tbaa !3
  br label %38

38:                                               ; preds = %36, %33
  %39 = phi i64 [ %35, %33 ], [ %37, %36 ]
  store i64 %39, ptr %11, align 8, !tbaa !3
  %40 = load i64, ptr %11, align 8, !tbaa !3
  store i64 %40, ptr %12, align 8, !tbaa !3
  store i32 0, ptr %16, align 4, !tbaa !7
  br label %41

41:                                               ; preds = %79, %38
  %42 = load i32, ptr %16, align 4, !tbaa !7
  %43 = load i32, ptr %8, align 4, !tbaa !7
  %44 = icmp slt i32 %42, %43
  br i1 %44, label %45, label %82

45:                                               ; preds = %41
  %46 = load i64, ptr %11, align 8, !tbaa !3
  store i64 %46, ptr %13, align 8, !tbaa !3
  store i32 0, ptr %17, align 4, !tbaa !7
  br label %47

47:                                               ; preds = %68, %45
  %48 = load i32, ptr %17, align 4, !tbaa !7
  %49 = load i32, ptr %7, align 4, !tbaa !7
  %50 = icmp slt i32 %48, %49
  br i1 %50, label %51, label %71

51:                                               ; preds = %47
  %52 = load i64, ptr %14, align 8, !tbaa !3
  %53 = load i64, ptr %11, align 8, !tbaa !3
  %54 = icmp ugt i64 %52, %53
  br i1 %54, label %55, label %57

55:                                               ; preds = %51
  %56 = load i64, ptr %11, align 8, !tbaa !3
  store i64 %56, ptr %14, align 8, !tbaa !3
  br label %57

57:                                               ; preds = %55, %51
  %58 = load ptr, ptr %6, align 8, !tbaa !9
  %59 = load i64, ptr %11, align 8, !tbaa !3
  %60 = call i32 @Vec_WrdPushUnique(ptr noundef %58, i64 noundef %59)
  %61 = load i64, ptr %11, align 8, !tbaa !3
  %62 = load ptr, ptr %9, align 8, !tbaa !12
  %63 = load i32, ptr %17, align 4, !tbaa !7
  %64 = sext i32 %63 to i64
  %65 = getelementptr inbounds i32, ptr %62, i64 %64
  %66 = load i32, ptr %65, align 4, !tbaa !7
  %67 = call i64 @Abc_Tt6Flip(i64 noundef %61, i32 noundef %66)
  store i64 %67, ptr %11, align 8, !tbaa !3
  br label %68

68:                                               ; preds = %57
  %69 = load i32, ptr %17, align 4, !tbaa !7
  %70 = add nsw i32 %69, 1
  store i32 %70, ptr %17, align 4, !tbaa !7
  br label %47, !llvm.loop !14

71:                                               ; preds = %47
  %72 = load i64, ptr %11, align 8, !tbaa !3
  %73 = load ptr, ptr %10, align 8, !tbaa !12
  %74 = load i32, ptr %16, align 4, !tbaa !7
  %75 = sext i32 %74 to i64
  %76 = getelementptr inbounds i32, ptr %73, i64 %75
  %77 = load i32, ptr %76, align 4, !tbaa !7
  %78 = call i64 @Abc_Tt6SwapAdjacent(i64 noundef %72, i32 noundef %77)
  store i64 %78, ptr %11, align 8, !tbaa !3
  br label %79

79:                                               ; preds = %71
  %80 = load i32, ptr %16, align 4, !tbaa !7
  %81 = add nsw i32 %80, 1
  store i32 %81, ptr %16, align 4, !tbaa !7
  br label %41, !llvm.loop !16

82:                                               ; preds = %41
  br label %83

83:                                               ; preds = %82
  %84 = load i32, ptr %15, align 4, !tbaa !7
  %85 = add nsw i32 %84, 1
  store i32 %85, ptr %15, align 4, !tbaa !7
  br label %27, !llvm.loop !17

86:                                               ; preds = %27
  %87 = load ptr, ptr %9, align 8, !tbaa !12
  %88 = icmp ne ptr %87, null
  br i1 %88, label %89, label %91

89:                                               ; preds = %86
  %90 = load ptr, ptr %9, align 8, !tbaa !12
  call void @free(ptr noundef %90) #9
  store ptr null, ptr %9, align 8, !tbaa !12
  br label %92

91:                                               ; preds = %86
  br label %92

92:                                               ; preds = %91, %89
  %93 = load ptr, ptr %10, align 8, !tbaa !12
  %94 = icmp ne ptr %93, null
  br i1 %94, label %95, label %97

95:                                               ; preds = %92
  %96 = load ptr, ptr %10, align 8, !tbaa !12
  call void @free(ptr noundef %96) #9
  store ptr null, ptr %10, align 8, !tbaa !12
  br label %98

97:                                               ; preds = %92
  br label %98

98:                                               ; preds = %97, %95
  %99 = load i64, ptr %14, align 8, !tbaa !3
  call void @llvm.lifetime.end.p0(i64 4, ptr %17) #9
  call void @llvm.lifetime.end.p0(i64 4, ptr %16) #9
  call void @llvm.lifetime.end.p0(i64 4, ptr %15) #9
  call void @llvm.lifetime.end.p0(i64 8, ptr %14) #9
  call void @llvm.lifetime.end.p0(i64 8, ptr %13) #9
  call void @llvm.lifetime.end.p0(i64 8, ptr %12) #9
  call void @llvm.lifetime.end.p0(i64 8, ptr %11) #9
  call void @llvm.lifetime.end.p0(i64 8, ptr %10) #9
  call void @llvm.lifetime.end.p0(i64 8, ptr %9) #9
  call void @llvm.lifetime.end.p0(i64 4, ptr %8) #9
  call void @llvm.lifetime.end.p0(i64 4, ptr %7) #9
  ret i64 %99
}