; Function Attrs: nounwind uwtable
define i64 @Extra_TruthCanonNPN3(i64 noundef %0, i32 noundef %1, ptr noundef captures(none) initializes((4, 8)) %2) local_unnamed_addr #0 {
  %4 = tail call i32 @Extra_Factorial(i32 noundef %1) #11
  %5 = tail call ptr @Extra_GreyCodeSchedule(i32 noundef %1) #11
  %6 = tail call ptr @Extra_PermSchedule(i32 noundef %1) #11
  %7 = getelementptr inbounds nuw i8, ptr %2, i64 4
  store i32 0, ptr %7, align 4, !tbaa !3
  %8 = icmp slt i32 %4, 1
  %9 = getelementptr inbounds nuw i8, ptr %2, i64 8
  %.not61 = icmp eq i32 %1, 31
  %or.cond = or i1 %8, %.not61
  br i1 %or.cond, label %.split59.us, label %.preheader.lr.ph.us.us.preheader

.preheader.lr.ph.us.us.preheader:                 ; preds = %3
  %10 = shl nuw i32 1, %1
  %smax = tail call i32 @llvm.smax.i32(i32 %10, i32 1)
  %wide.trip.count68 = zext nneg i32 %4 to i64
  %wide.trip.count = zext nneg i32 %smax to i64
  br label %.preheader.lr.ph.us.us

.preheader.lr.ph.us.us:                           ; preds = %.preheader.lr.ph.us.us.preheader, %._crit_edge49.split.us.us.us
  %11 = phi i32 [ 0, %.preheader.lr.ph.us.us.preheader ], [ %52, %._crit_edge49.split.us.us.us ]
  %12 = phi i1 [ true, %.preheader.lr.ph.us.us.preheader ], [ false, %._crit_edge49.split.us.us.us ]
  %indvars.iv70 = phi i64 [ 0, %.preheader.lr.ph.us.us.preheader ], [ 1, %._crit_edge49.split.us.us.us ]
  %.03551.us.us = phi i64 [ -1, %.preheader.lr.ph.us.us.preheader ], [ %spec.select.us.us.us, %._crit_edge49.split.us.us.us ]
  %13 = sub nsw i64 0, %indvars.iv70
  %14 = xor i64 %0, %13
  br label %.preheader.us.us.us

.preheader.us.us.us:                              ; preds = %._crit_edge.us.us.us, %.preheader.lr.ph.us.us
  %15 = phi i32 [ %52, %._crit_edge.us.us.us ], [ %11, %.preheader.lr.ph.us.us ]
  %indvars.iv65 = phi i64 [ %indvars.iv.next66, %._crit_edge.us.us.us ], [ 0, %.preheader.lr.ph.us.us ]
  %.147.us.us.us = phi i64 [ %spec.select.us.us.us, %._crit_edge.us.us.us ], [ %.03551.us.us, %.preheader.lr.ph.us.us ]
  %.03646.us.us.us = phi i64 [ %82, %._crit_edge.us.us.us ], [ %14, %.preheader.lr.ph.us.us ]
  br label %16

16:                                               ; preds = %Vec_WrdPushUnique.exit.us.us.us, %.preheader.us.us.us
  %17 = phi i32 [ %52, %Vec_WrdPushUnique.exit.us.us.us ], [ %15, %.preheader.us.us.us ]
  %indvars.iv = phi i64 [ %indvars.iv.next, %Vec_WrdPushUnique.exit.us.us.us ], [ 0, %.preheader.us.us.us ]
  %.243.us.us.us = phi i64 [ %spec.select.us.us.us, %Vec_WrdPushUnique.exit.us.us.us ], [ %.147.us.us.us, %.preheader.us.us.us ]
  %.13742.us.us.us = phi i64 [ %64, %Vec_WrdPushUnique.exit.us.us.us ], [ %.03646.us.us.us, %.preheader.us.us.us ]
  %spec.select.us.us.us = tail call i64 @llvm.umin.i64(i64 %.243.us.us.us, i64 %.13742.us.us.us)
  %18 = icmp sgt i32 %17, 0
  br i1 %18, label %.lr.ph.i.us.us.us, label %._crit_edge.i.us.us.us

.lr.ph.i.us.us.us:                                ; preds = %16
  %19 = load ptr, ptr %9, align 8, !tbaa !10
  %wide.trip.count.i.us.us.us = zext nneg i32 %17 to i64
  br label %20

20:                                               ; preds = %24, %.lr.ph.i.us.us.us
  %indvars.iv.i.us.us.us = phi i64 [ 0, %.lr.ph.i.us.us.us ], [ %indvars.iv.next.i.us.us.us, %24 ]
  %21 = getelementptr inbounds nuw i64, ptr %19, i64 %indvars.iv.i.us.us.us
  %22 = load i64, ptr %21, align 8, !tbaa !11
  %23 = icmp eq i64 %22, %.13742.us.us.us
  br i1 %23, label %Vec_WrdPushUnique.exit.us.us.us, label %24

24:                                               ; preds = %20
  %indvars.iv.next.i.us.us.us = add nuw nsw i64 %indvars.iv.i.us.us.us, 1
  %exitcond.not.i.us.us.us = icmp eq i64 %indvars.iv.next.i.us.us.us, %wide.trip.count.i.us.us.us
  br i1 %exitcond.not.i.us.us.us, label %._crit_edge.i.us.us.us, label %20, !llvm.loop !13

._crit_edge.i.us.us.us:                           ; preds = %24, %16
  %25 = load i32, ptr %2, align 8, !tbaa !15
  %26 = icmp eq i32 %17, %25
  br i1 %26, label %27, label %.Vec_WrdGrow.exit10_crit_edge.i.i.us.us.us

.Vec_WrdGrow.exit10_crit_edge.i.i.us.us.us:       ; preds = %._crit_edge.i.us.us.us
  %.pre.i.i.us.us.us = load ptr, ptr %9, align 8, !tbaa !10
  br label %Vec_WrdPush.exit.i.us.us.us

27:                                               ; preds = %._crit_edge.i.us.us.us
  %28 = icmp slt i32 %17, 16
  br i1 %28, label %40, label %29

29:                                               ; preds = %27
  %30 = shl nuw nsw i32 %17, 1
  %31 = load ptr, ptr %9, align 8, !tbaa !10
  %.not9.i9.i.i.us.us.us = icmp eq ptr %31, null
  %32 = zext nneg i32 %30 to i64
  %33 = shl nuw nsw i64 %32, 3
  br i1 %.not9.i9.i.i.us.us.us, label %36, label %34

34:                                               ; preds = %29
  %35 = tail call ptr @realloc(ptr noundef nonnull %31, i64 noundef %33) #12
  br label %38

36:                                               ; preds = %29
  %37 = tail call noalias ptr @malloc(i64 noundef %33) #13
  br label %38

38:                                               ; preds = %36, %34
  %39 = phi ptr [ %35, %34 ], [ %37, %36 ]
  store ptr %39, ptr %9, align 8, !tbaa !10
  store i32 %30, ptr %2, align 8, !tbaa !15
  br label %Vec_WrdPush.exit.i.us.us.us

40:                                               ; preds = %27
  %41 = load ptr, ptr %9, align 8, !tbaa !10
  %.not9.i.i.i.us.us.us = icmp eq ptr %41, null
  br i1 %.not9.i.i.i.us.us.us, label %44, label %42

42:                                               ; preds = %40
  %43 = tail call dereferenceable_or_null(128) ptr @realloc(ptr noundef nonnull %41, i64 noundef 128) #12
  br label %Vec_WrdGrow.exit.i.i.us.us.us

44:                                               ; preds = %40
  %45 = tail call noalias dereferenceable_or_null(128) ptr @malloc(i64 noundef 128) #13
  br label %Vec_WrdGrow.exit.i.i.us.us.us

Vec_WrdGrow.exit.i.i.us.us.us:                    ; preds = %44, %42
  %46 = phi ptr [ %43, %42 ], [ %45, %44 ]
  store ptr %46, ptr %9, align 8, !tbaa !10
  store i32 16, ptr %2, align 8, !tbaa !15
  br label %Vec_WrdPush.exit.i.us.us.us

Vec_WrdPush.exit.i.us.us.us:                      ; preds = %Vec_WrdGrow.exit.i.i.us.us.us, %38, %.Vec_WrdGrow.exit10_crit_edge.i.i.us.us.us
  %47 = phi ptr [ %.pre.i.i.us.us.us, %.Vec_WrdGrow.exit10_crit_edge.i.i.us.us.us ], [ %39, %38 ], [ %46, %Vec_WrdGrow.exit.i.i.us.us.us ]
  %48 = load i32, ptr %7, align 4, !tbaa !3
  %49 = add nsw i32 %48, 1
  store i32 %49, ptr %7, align 4, !tbaa !3
  %50 = sext i32 %48 to i64
  %51 = getelementptr inbounds i64, ptr %47, i64 %50
  store i64 %.13742.us.us.us, ptr %51, align 8, !tbaa !11
  br label %Vec_WrdPushUnique.exit.us.us.us

Vec_WrdPushUnique.exit.us.us.us:                  ; preds = %20, %Vec_WrdPush.exit.i.us.us.us
  %52 = phi i32 [ %49, %Vec_WrdPush.exit.i.us.us.us ], [ %17, %20 ]
  %53 = getelementptr inbounds nuw i32, ptr %5, i64 %indvars.iv
  %54 = load i32, ptr %53, align 4, !tbaa !16
  %55 = shl nuw i32 1, %54
  %56 = zext i32 %55 to i64
  %57 = shl i64 %.13742.us.us.us, %56
  %58 = sext i32 %54 to i64
  %59 = getelementptr inbounds [6 x i64], ptr @s_Truths6, i64 0, i64 %58
  %60 = load i64, ptr %59, align 8, !tbaa !11
  %61 = and i64 %57, %60
  %62 = and i64 %60, %.13742.us.us.us
  %63 = lshr i64 %62, %56
  %64 = or i64 %61, %63
  %indvars.iv.next = add nuw nsw i64 %indvars.iv, 1
  %exitcond.not = icmp eq i64 %indvars.iv.next, %wide.trip.count
  br i1 %exitcond.not, label %._crit_edge.us.us.us, label %16, !llvm.loop !17

._crit_edge.us.us.us:                             ; preds = %Vec_WrdPushUnique.exit.us.us.us
  %65 = getelementptr inbounds nuw i32, ptr %6, i64 %indvars.iv65
  %66 = load i32, ptr %65, align 4, !tbaa !16
  %67 = sext i32 %66 to i64
  %68 = getelementptr inbounds [5 x [3 x i64]], ptr @s_PMasks, i64 0, i64 %67
  %69 = load i64, ptr %68, align 8, !tbaa !11
  %70 = and i64 %69, %64
  %71 = getelementptr inbounds nuw i8, ptr %68, i64 8
  %72 = load i64, ptr %71, align 8, !tbaa !11
  %73 = and i64 %72, %64
  %74 = shl nuw i32 1, %66
  %75 = zext i32 %74 to i64
  %76 = shl i64 %73, %75
  %77 = or i64 %76, %70
  %78 = getelementptr inbounds nuw i8, ptr %68, i64 16
  %79 = load i64, ptr %78, align 8, !tbaa !11
  %80 = and i64 %79, %64
  %81 = lshr i64 %80, %75
  %82 = or i64 %77, %81
  %indvars.iv.next66 = add nuw nsw i64 %indvars.iv65, 1
  %exitcond69.not = icmp eq i64 %indvars.iv.next66, %wide.trip.count68
  br i1 %exitcond69.not, label %._crit_edge49.split.us.us.us, label %.preheader.us.us.us, !llvm.loop !18

._crit_edge49.split.us.us.us:                     ; preds = %._crit_edge.us.us.us
  br i1 %12, label %.preheader.lr.ph.us.us, label %.split59.us.thread, !llvm.loop !19

.split59.us:                                      ; preds = %3
  %.not = icmp eq ptr %5, null
  br i1 %.not, label %83, label %.split59.us.thread

.split59.us.thread:                               ; preds = %._crit_edge49.split.us.us.us, %.split59.us
  %.us-phi6083 = phi i64 [ -1, %.split59.us ], [ %spec.select.us.us.us, %._crit_edge49.split.us.us.us ]
  tail call void @free(ptr noundef nonnull %5) #11
  br label %83

83:                                               ; preds = %.split59.us, %.split59.us.thread
  %.us-phi6084 = phi i64 [ -1, %.split59.us ], [ %.us-phi6083, %.split59.us.thread ]
  %.not40 = icmp eq ptr %6, null
  br i1 %.not40, label %85, label %84

84:                                               ; preds = %83
  tail call void @free(ptr noundef nonnull %6) #11
  br label %85

85:                                               ; preds = %83, %84
  ret i64 %.us-phi6084
}